target datalayout = "e-m:e-p270:32:32-p271:32:32-p272:64:64-i64:64-i128:128-f80:128-n8:16:32:64-S128"
target triple = "x86_64-pc-linux-gnu"

%struct.pg_tm = type { i32, i32, i32, i32, i32, i32, i32, i32, i32, i64, ptr }
%struct.FunctionCallInfoBaseData = type { ptr, ptr, ptr, i32, i8, i16, [0 x %struct.NullableDatum] }
%struct.NullableDatum = type { i64, i8 }
%struct.fmt_tz = type { i8, i32 }

@.str.3 = private unnamed_addr constant [13 x i8] c"formatting.c\00", align 1
@.str.8 = private unnamed_addr constant [24 x i8] c"date out of range: \22%s\22\00", align 1
@__func__.to_date = private unnamed_addr constant [8 x i8] c"to_date\00", align 1

; Function Attrs: inlinehint nounwind uwtable
define internal i64 @Int32GetDatum(i32 noundef %0) #4 {
  %2 = alloca i32, align 4
  store i32 %0, ptr %2, align 4
  %3 = load i32, ptr %2, align 4
  %4 = sext i32 %3 to i64
  ret i64 %4
}

; Function Attrs: inlinehint nounwind uwtable
define internal i64 @DateADTGetDatum(i32 noundef %0) #4 {
  %2 = alloca i32, align 4
  store i32 %0, ptr %2, align 4
  %3 = load i32, ptr %2, align 4
  %4 = call i64 @Int32GetDatum(i32 noundef %3)
  ret i64 %4
}

; Function Attrs: inlinehint nounwind uwtable
define internal ptr @DatumGetPointer(i64 noundef %0) #4 {
  %2 = alloca i64, align 8
  store i64 %0, ptr %2, align 8
  %3 = load i64, ptr %2, align 8
  %4 = inttoptr i64 %3 to ptr
  ret ptr %4
}

; Function Attrs: nounwind uwtable
define dso_local i64 @to_date(ptr noundef %0) #0 {
  %2 = alloca ptr, align 8
  %3 = alloca ptr, align 8
  %4 = alloca ptr, align 8
  %5 = alloca i32, align 4
  %6 = alloca i32, align 4
  %7 = alloca %struct.pg_tm, align 8
  %8 = alloca %struct.fmt_tz, align 4
  %9 = alloca i32, align 4
  store ptr %0, ptr %2, align 8
  call void @llvm.lifetime.start.p0(i64 8, ptr %3) #11
  %10 = load ptr, ptr %2, align 8
  %11 = getelementptr inbounds nuw %struct.FunctionCallInfoBaseData, ptr %10, i32 0, i32 6
  %12 = getelementptr inbounds [0 x %struct.NullableDatum], ptr %11, i64 0, i64 0
  %13 = getelementptr inbounds nuw %struct.NullableDatum, ptr %12, i32 0, i32 0
  %14 = load i64, ptr %13, align 8
  %15 = call ptr @DatumGetPointer(i64 noundef %14)
  %16 = call ptr @pg_detoast_datum_packed(ptr noundef %15)
  store ptr %16, ptr %3, align 8
  call void @llvm.lifetime.start.p0(i64 8, ptr %4) #11
  %17 = load ptr, ptr %2, align 8
  %18 = getelementptr inbounds nuw %struct.FunctionCallInfoBaseData, ptr %17, i32 0, i32 6
  %19 = getelementptr inbounds [0 x %struct.NullableDatum], ptr %18, i64 0, i64 1
  %20 = getelementptr inbounds nuw %struct.NullableDatum, ptr %19, i32 0, i32 0
  %21 = load i64, ptr %20, align 8
  %22 = call ptr @DatumGetPointer(i64 noundef %21)
  %23 = call ptr @pg_detoast_datum_packed(ptr noundef %22)
  store ptr %23, ptr %4, align 8
  call void @llvm.lifetime.start.p0(i64 4, ptr %5) #11
  %24 = load ptr, ptr %2, align 8
  %25 = getelementptr inbounds nuw %struct.FunctionCallInfoBaseData, ptr %24, i32 0, i32 3
  %26 = load i32, ptr %25, align 8
  store i32 %26, ptr %5, align 4
  call void @llvm.lifetime.start.p0(i64 4, ptr %6) #11
  call void @llvm.lifetime.start.p0(i64 56, ptr %7) #11
  call void @llvm.lifetime.start.p0(i64 8, ptr %8) #11
  call void @llvm.lifetime.start.p0(i64 4, ptr %9) #11
  %27 = load ptr, ptr %3, align 8
  %28 = load ptr, ptr %4, align 8
  %29 = load i32, ptr %5, align 4
  %30 = call zeroext i1 @do_to_timestamp(ptr noundef %27, ptr noundef %28, i32 noundef %29, i1 noundef zeroext false, ptr noundef %7, ptr noundef %9, ptr noundef %8, ptr noundef null, ptr noundef null, ptr noundef null)
  %31 = getelementptr inbounds nuw %struct.pg_tm, ptr %7, i32 0, i32 5
  %32 = load i32, ptr %31, align 4
  %33 = icmp sgt i32 %32, -4713
  br i1 %33, label %42, label %34

34:                                               ; preds = %1
  %35 = getelementptr inbounds nuw %struct.pg_tm, ptr %7, i32 0, i32 5
  %36 = load i32, ptr %35, align 4
  %37 = icmp eq i32 %36, -4713
  br i1 %37, label %38, label %54

38:                                               ; preds = %34
  %39 = getelementptr inbounds nuw %struct.pg_tm, ptr %7, i32 0, i32 4
  %40 = load i32, ptr %39, align 8
  %41 = icmp sge i32 %40, 11
  br i1 %41, label %42, label %54

42:                                               ; preds = %38, %1
  %43 = getelementptr inbounds nuw %struct.pg_tm, ptr %7, i32 0, i32 5
  %44 = load i32, ptr %43, align 4
  %45 = icmp slt i32 %44, 5874898
  br i1 %45, label %68, label %46

46:                                               ; preds = %42
  %47 = getelementptr inbounds nuw %struct.pg_tm, ptr %7, i32 0, i32 5
  %48 = load i32, ptr %47, align 4
  %49 = icmp eq i32 %48, 5874898
  br i1 %49, label %50, label %54

50:                                               ; preds = %46
  %51 = getelementptr inbounds nuw %struct.pg_tm, ptr %7, i32 0, i32 4
  %52 = load i32, ptr %51, align 8
  %53 = icmp slt i32 %52, 6
  br i1 %53, label %68, label %54

54:                                               ; preds = %50, %46, %38, %34
  br label %55

55:                                               ; preds = %54
  br i1 true, label %56, label %58

56:                                               ; preds = %55
  %57 = call zeroext i1 @errstart_cold(i32 noundef 21, ptr noundef null) #12
  br i1 %57, label %60, label %65

58:                                               ; preds = %55
  %59 = call zeroext i1 @errstart(i32 noundef 21, ptr noundef null)
  br i1 %59, label %60, label %65

60:                                               ; preds = %58, %56
  %61 = call i32 @errcode(i32 noundef 134217858)
  %62 = load ptr, ptr %3, align 8
  %63 = call ptr @text_to_cstring(ptr noundef %62)
  %64 = call i32 (ptr, ...) @errmsg(ptr noundef @.str.8, ptr noundef %63)
  call void @errfinish(ptr noundef @.str.3, i32 noundef 4172, ptr noundef @__func__.to_date)
  br label %65

65:                                               ; preds = %60, %58, %56
  unreachable

66:                                               ; No predecessors!
  br label %67

67:                                               ; preds = %66
  br label %68

68:                                               ; preds = %67, %50, %42
  %69 = getelementptr inbounds nuw %struct.pg_tm, ptr %7, i32 0, i32 5
  %70 = load i32, ptr %69, align 4
  %71 = getelementptr inbounds nuw %struct.pg_tm, ptr %7, i32 0, i32 4
  %72 = load i32, ptr %71, align 8
  %73 = getelementptr inbounds nuw %struct.pg_tm, ptr %7, i32 0, i32 3
  %74 = load i32, ptr %73, align 4
  %75 = call i32 @date2j(i32 noundef %70, i32 noundef %72, i32 noundef %74)
  %76 = sub i32 %75, 2451545
  store i32 %76, ptr %6, align 4
  %77 = load i32, ptr %6, align 4
  %78 = icmp sle i32 -2451545, %77
  br i1 %78, label %79, label %82

79:                                               ; preds = %68
  %80 = load i32, ptr %6, align 4
  %81 = icmp slt i32 %80, 2145031949
  br i1 %81, label %96, label %82

82:                                               ; preds = %79, %68
  br label %83

83:                                               ; preds = %82
  br i1 true, label %84, label %86

84:                                               ; preds = %83
  %85 = call zeroext i1 @errstart_cold(i32 noundef 21, ptr noundef null) #12
  br i1 %85, label %88, label %93

86:                                               ; preds = %83
  %87 = call zeroext i1 @errstart(i32 noundef 21, ptr noundef null)
  br i1 %87, label %88, label %93

88:                                               ; preds = %86, %84
  %89 = call i32 @errcode(i32 noundef 134217858)
  %90 = load ptr, ptr %3, align 8
  %91 = call ptr @text_to_cstring(ptr noundef %90)
  %92 = call i32 (ptr, ...) @errmsg(ptr noundef @.str.8, ptr noundef %91)
  call void @errfinish(ptr noundef @.str.3, i32 noundef 4181, ptr noundef @__func__.to_date)
  br label %93

93:                                               ; preds = %88, %86, %84
  unreachable

94:                                               ; No predecessors!
  br label %95

95:                                               ; preds = %94
  br label %96

96:                                               ; preds = %95, %79
  %97 = load i32, ptr %6, align 4
  %98 = call i64 @DateADTGetDatum(i32 noundef %97)
  call void @llvm.lifetime.end.p0(i64 4, ptr %9) #11
  call void @llvm.lifetime.end.p0(i64 8, ptr %8) #11
  call void @llvm.lifetime.end.p0(i64 56, ptr %7) #11
  call void @llvm.lifetime.end.p0(i64 4, ptr %6) #11
  call void @llvm.lifetime.end.p0(i64 4, ptr %5) #11
  call void @llvm.lifetime.end.p0(i64 8, ptr %4) #11
  call void @llvm.lifetime.end.p0(i64 8, ptr %3) #11
  ret i64 %98
}