; Function Attrs: nounwind uwtable
define dso_local range(i64 -2451545, 2145031949) i64 @to_date(ptr noundef readonly captures(none) %0) local_unnamed_addr #0 {
  %2 = alloca %struct.pg_tm, align 8
  %3 = alloca %struct.fmt_tz, align 4
  %4 = alloca i32, align 4
  %5 = getelementptr inbounds nuw i8, ptr %0, i64 32
  %6 = load i64, ptr %5, align 8
  %7 = inttoptr i64 %6 to ptr
  %8 = tail call ptr @pg_detoast_datum_packed(ptr noundef %7) #18
  %9 = getelementptr inbounds nuw i8, ptr %0, i64 48
  %10 = load i64, ptr %9, align 8
  %11 = inttoptr i64 %10 to ptr
  %12 = tail call ptr @pg_detoast_datum_packed(ptr noundef %11) #18
  %13 = getelementptr inbounds nuw i8, ptr %0, i64 24
  %14 = load i32, ptr %13, align 8
  call void @llvm.lifetime.start.p0(i64 56, ptr nonnull %2) #18
  call void @llvm.lifetime.start.p0(i64 8, ptr nonnull %3) #18
  call void @llvm.lifetime.start.p0(i64 4, ptr nonnull %4) #18
  %15 = call fastcc zeroext i1 @do_to_timestamp(ptr noundef %8, ptr noundef %12, i32 noundef %14, i1 noundef zeroext false, ptr noundef %2, ptr noundef %4, ptr noundef %3, ptr noundef null, ptr noundef null, ptr noundef null)
  %16 = getelementptr inbounds nuw i8, ptr %2, i64 20
  %17 = load i32, ptr %16, align 4
  %18 = icmp sgt i32 %17, -4713
  br i1 %18, label %24, label %19

19:                                               ; preds = %1
  %20 = icmp eq i32 %17, -4713
  %21 = getelementptr inbounds nuw i8, ptr %2, i64 16
  %22 = load i32, ptr %21, align 8
  %23 = icmp sgt i32 %22, 10
  %or.cond = select i1 %20, i1 %23, i1 false
  br i1 %or.cond, label %.thread, label %31

24:                                               ; preds = %1
  %25 = icmp slt i32 %17, 5874898
  br i1 %25, label %..thread_crit_edge, label %26

..thread_crit_edge:                               ; preds = %24
  %.phi.trans.insert = getelementptr inbounds nuw i8, ptr %2, i64 16
  %.pre = load i32, ptr %.phi.trans.insert, align 8
  br label %.thread

26:                                               ; preds = %24
  %27 = icmp eq i32 %17, 5874898
  %28 = getelementptr inbounds nuw i8, ptr %2, i64 16
  %29 = load i32, ptr %28, align 8
  %30 = icmp slt i32 %29, 6
  %or.cond5 = select i1 %27, i1 %30, i1 false
  br i1 %or.cond5, label %.thread, label %31

31:                                               ; preds = %26, %19
  %32 = call zeroext i1 @errstart_cold(i32 noundef 21, ptr noundef null) #17
  call void @llvm.assume(i1 %32)
  %33 = call i32 @errcode(i32 noundef 134217858) #18
  %34 = call ptr @text_to_cstring(ptr noundef %8) #18
  %35 = call i32 (ptr, ...) @errmsg(ptr noundef nonnull @.str.8, ptr noundef %34) #18
  call void @errfinish(ptr noundef nonnull @.str.3, i32 noundef 4172, ptr noundef nonnull @__func__.to_date) #18
  unreachable

.thread:                                          ; preds = %..thread_crit_edge, %19, %26
  %36 = phi i32 [ %.pre, %..thread_crit_edge ], [ %22, %19 ], [ %29, %26 ]
  %37 = getelementptr inbounds nuw i8, ptr %2, i64 12
  %38 = load i32, ptr %37, align 4
  %39 = call i32 @date2j(i32 noundef %17, i32 noundef %36, i32 noundef %38) #18
  %or.cond7 = icmp ult i32 %39, 2147483494
  br i1 %or.cond7, label %45, label %40

40:                                               ; preds = %.thread
  %41 = call zeroext i1 @errstart_cold(i32 noundef 21, ptr noundef null) #17
  call void @llvm.assume(i1 %41)
  %42 = call i32 @errcode(i32 noundef 134217858) #18
  %43 = call ptr @text_to_cstring(ptr noundef %8) #18
  %44 = call i32 (ptr, ...) @errmsg(ptr noundef nonnull @.str.8, ptr noundef %43) #18
  call void @errfinish(ptr noundef nonnull @.str.3, i32 noundef 4181, ptr noundef nonnull @__func__.to_date) #18
  unreachable

45:                                               ; preds = %.thread
  %46 = add nsw i32 %39, -2451545
  %47 = sext i32 %46 to i64
  call void @llvm.lifetime.end.p0(i64 4, ptr nonnull %4) #18
  call void @llvm.lifetime.end.p0(i64 8, ptr nonnull %3) #18
  call void @llvm.lifetime.end.p0(i64 56, ptr nonnull %2) #18
  ret i64 %47
}